; Function Attrs: nofree norecurse nounwind memory(readwrite, inaccessiblemem: none) uwtable
define hidden void @_mi_segment_map_freed_at(ptr noundef %0) local_unnamed_addr #2 {
  %2 = getelementptr inbounds nuw i8, ptr %0, i64 20
  %3 = load i32, ptr %2, align 4, !tbaa !3
  %4 = icmp eq i32 %3, 6
  br i1 %4, label %mi_segment_map_index_of.exit.thread, label %5

5:                                                ; preds = %1
  %6 = ptrtoint ptr %0 to i64
  %7 = icmp ugt ptr %0, inttoptr (i64 52776558133247 to ptr)
  br i1 %7, label %mi_segment_map_index_of.exit.thread, label %8

8:                                                ; preds = %5
  %9 = udiv i64 %6, 270582939648
  %10 = urem i64 %6, 270582939648
  %11 = getelementptr inbounds nuw [196 x ptr], ptr @mi_segment_map, i64 0, i64 %9
  %12 = load atomic i64, ptr %11 monotonic, align 8
  %13 = icmp eq i64 %12, 0
  br i1 %13, label %mi_segment_map_index_of.exit.thread, label %mi_segment_map_index_of.exit

mi_segment_map_index_of.exit:                     ; preds = %8
  %14 = inttoptr i64 %12 to ptr
  %15 = lshr i64 %10, 22
  %16 = and i64 %15, 63
  %17 = lshr i64 %10, 28
  %18 = getelementptr inbounds nuw i8, ptr %14, i64 24
  %19 = getelementptr inbounds nuw [1008 x i64], ptr %18, i64 0, i64 %17
  %20 = load atomic i64, ptr %19 monotonic, align 8
  %21 = shl nuw i64 1, %16
  %22 = xor i64 %21, -1
  br label %23

23:                                               ; preds = %23, %mi_segment_map_index_of.exit
  %.0 = phi i64 [ %20, %mi_segment_map_index_of.exit ], [ %27, %23 ]
  %24 = and i64 %.0, %22
  %25 = cmpxchg weak ptr %19, i64 %.0, i64 %24 release monotonic, align 8
  %26 = extractvalue { i64, i1 } %25, 1
  %27 = extractvalue { i64, i1 } %25, 0
  br i1 %26, label %mi_segment_map_index_of.exit.thread, label %23, !llvm.loop !20

mi_segment_map_index_of.exit.thread:              ; preds = %23, %8, %5, %1
  ret void
}